; Function Attrs: mustprogress uwtable
define internal noundef double @"_ZNSt17_Function_handlerIFddEZNK8QuantLib23ExponentialJump1dMesher20jumpSizeDistributionEdE3$_0E9_M_invokeERKSt9_Any_dataOd"(ptr nocapture noundef nonnull readonly align 8 dereferenceable(16) %__functor, ptr nocapture noundef nonnull readonly align 8 dereferenceable(8) %__args) #0 align 2 {
entry:
  %ref.tmp.i.i.i.i = alloca %"class.QuantLib::GammaFunction", align 1
  %call.val = load ptr, ptr %__functor, align 8, !tbaa !46
  %__args.val = load double, ptr %__args, align 8, !tbaa !28
  %jumpIntensity_.i.i.i.i = getelementptr inbounds nuw i8, ptr %call.val, i64 88
  %0 = load double, ptr %jumpIntensity_.i.i.i.i, align 8, !tbaa !16
  %beta_.i.i.i.i = getelementptr inbounds nuw i8, ptr %call.val, i64 80
  %1 = load double, ptr %beta_.i.i.i.i, align 8, !tbaa !6
  %div.i.i.i.i = fdiv double %0, %1
  %sub.i.i.i.i = fsub double 1.000000e+00, %div.i.i.i.i
  call void @llvm.lifetime.start.p0(i64 1, ptr nonnull %ref.tmp.i.i.i.i) #19
  %call.i.i.i.i = call noundef double @_ZNK8QuantLib13GammaFunction8logValueEd(ptr noundef nonnull align 1 dereferenceable(1) %ref.tmp.i.i.i.i, double noundef %div.i.i.i.i)
  %call5.i.i.i.i = call double @exp(double noundef %call.i.i.i.i) #19, !tbaa !24
  call void @llvm.lifetime.end.p0(i64 1, ptr nonnull %ref.tmp.i.i.i.i) #19
  %fneg.i.i.i.i = fneg double %__args.val
  %eta_.i.i.i.i = getelementptr inbounds nuw i8, ptr %call.val, i64 96
  %2 = load double, ptr %eta_.i.i.i.i, align 8, !tbaa !17
  %mul.i.i.i.i = fmul double %2, %fneg.i.i.i.i
  %call6.i.i.i.i = call double @exp(double noundef %mul.i.i.i.i) #19, !tbaa !24
  %fneg7.i.i.i.i = fneg double %sub.i.i.i.i
  %call8.i.i.i.i = call double @pow(double noundef %__args.val, double noundef %fneg7.i.i.i.i) #19, !tbaa !24
  %mul9.i.i.i.i = fmul double %call6.i.i.i.i, %call8.i.i.i.i
  %sub11.i.i.i.i = fsub double 1.000000e+00, %sub.i.i.i.i
  %call12.i.i.i.i = call double @pow(double noundef %2, double noundef %sub11.i.i.i.i) #19, !tbaa !24
  %mul13.i.i.i.i = fmul double %mul9.i.i.i.i, %call12.i.i.i.i
  %div14.i.i.i.i = fdiv double %mul13.i.i.i.i, %call5.i.i.i.i
  ret double %div14.i.i.i.i
}